target datalayout = "e-m:e-p270:32:32-p271:32:32-p272:64:64-i64:64-i128:128-f80:128-n8:16:32:64-S128"
target triple = "x86_64-pc-linux-gnu"

%struct.guid = type { i32, i16, i16, [8 x i8] }

@.str.32 = private unnamed_addr constant [67 x i8] c"%.8X-%.4hX-%.4hX-%.2hhX%.2hhX-%.2hhX%.2hhX%.2hhX%.2hhX%.2hhX%.2hhX\00", align 1

; Function Attrs: nounwind uwtable
define hidden i32 @file_print_guid(ptr noundef %0, i64 noundef %1, ptr noundef %2) #0 {
  %4 = alloca ptr, align 8
  %5 = alloca i64, align 8
  %6 = alloca ptr, align 8
  %7 = alloca ptr, align 8
  store ptr %0, ptr %4, align 8
  store i64 %1, ptr %5, align 8
  store ptr %2, ptr %6, align 8
  %8 = load ptr, ptr %6, align 8
  store ptr %8, ptr %7, align 8
  %9 = load ptr, ptr %4, align 8
  %10 = load i64, ptr %5, align 8
  %11 = load ptr, ptr %7, align 8
  %12 = getelementptr inbounds %struct.guid, ptr %11, i32 0, i32 0
  %13 = load i32, ptr %12, align 4
  %14 = load ptr, ptr %7, align 8
  %15 = getelementptr inbounds %struct.guid, ptr %14, i32 0, i32 1
  %16 = load i16, ptr %15, align 4
  %17 = zext i16 %16 to i32
  %18 = load ptr, ptr %7, align 8
  %19 = getelementptr inbounds %struct.guid, ptr %18, i32 0, i32 2
  %20 = load i16, ptr %19, align 2
  %21 = zext i16 %20 to i32
  %22 = load ptr, ptr %7, align 8
  %23 = getelementptr inbounds %struct.guid, ptr %22, i32 0, i32 3
  %24 = getelementptr inbounds [8 x i8], ptr %23, i64 0, i64 0
  %25 = load i8, ptr %24, align 4
  %26 = zext i8 %25 to i32
  %27 = load ptr, ptr %7, align 8
  %28 = getelementptr inbounds %struct.guid, ptr %27, i32 0, i32 3
  %29 = getelementptr inbounds [8 x i8], ptr %28, i64 0, i64 1
  %30 = load i8, ptr %29, align 1
  %31 = zext i8 %30 to i32
  %32 = load ptr, ptr %7, align 8
  %33 = getelementptr inbounds %struct.guid, ptr %32, i32 0, i32 3
  %34 = getelementptr inbounds [8 x i8], ptr %33, i64 0, i64 2
  %35 = load i8, ptr %34, align 2
  %36 = zext i8 %35 to i32
  %37 = load ptr, ptr %7, align 8
  %38 = getelementptr inbounds %struct.guid, ptr %37, i32 0, i32 3
  %39 = getelementptr inbounds [8 x i8], ptr %38, i64 0, i64 3
  %40 = load i8, ptr %39, align 1
  %41 = zext i8 %40 to i32
  %42 = load ptr, ptr %7, align 8
  %43 = getelementptr inbounds %struct.guid, ptr %42, i32 0, i32 3
  %44 = getelementptr inbounds [8 x i8], ptr %43, i64 0, i64 4
  %45 = load i8, ptr %44, align 4
  %46 = zext i8 %45 to i32
  %47 = load ptr, ptr %7, align 8
  %48 = getelementptr inbounds %struct.guid, ptr %47, i32 0, i32 3
  %49 = getelementptr inbounds [8 x i8], ptr %48, i64 0, i64 5
  %50 = load i8, ptr %49, align 1
  %51 = zext i8 %50 to i32
  %52 = load ptr, ptr %7, align 8
  %53 = getelementptr inbounds %struct.guid, ptr %52, i32 0, i32 3
  %54 = getelementptr inbounds [8 x i8], ptr %53, i64 0, i64 6
  %55 = load i8, ptr %54, align 2
  %56 = zext i8 %55 to i32
  %57 = load ptr, ptr %7, align 8
  %58 = getelementptr inbounds %struct.guid, ptr %57, i32 0, i32 3
  %59 = getelementptr inbounds [8 x i8], ptr %58, i64 0, i64 7
  %60 = load i8, ptr %59, align 1
  %61 = zext i8 %60 to i32
  %62 = call i32 (ptr, i64, ptr, ...) @ap_php_snprintf(ptr noundef %9, i64 noundef %10, ptr noundef @.str.32, i32 noundef %13, i32 noundef %17, i32 noundef %21, i32 noundef %26, i32 noundef %31, i32 noundef %36, i32 noundef %41, i32 noundef %46, i32 noundef %51, i32 noundef %56, i32 noundef %61)
  ret i32 %62
}