; Function Attrs: nounwind uwtable
define hidden i32 @file_print_guid(ptr noundef %0, i64 noundef %1, ptr nocapture noundef readonly %2) local_unnamed_addr #2 {
  %4 = load i32, ptr %2, align 4
  %5 = getelementptr inbounds i8, ptr %2, i64 4
  %6 = load i16, ptr %5, align 4
  %7 = zext i16 %6 to i32
  %8 = getelementptr inbounds i8, ptr %2, i64 6
  %9 = load i16, ptr %8, align 2
  %10 = zext i16 %9 to i32
  %11 = getelementptr inbounds i8, ptr %2, i64 8
  %12 = load i8, ptr %11, align 4
  %13 = zext i8 %12 to i32
  %14 = getelementptr inbounds i8, ptr %2, i64 9
  %15 = load i8, ptr %14, align 1
  %16 = zext i8 %15 to i32
  %17 = getelementptr inbounds i8, ptr %2, i64 10
  %18 = load i8, ptr %17, align 2
  %19 = zext i8 %18 to i32
  %20 = getelementptr inbounds i8, ptr %2, i64 11
  %21 = load i8, ptr %20, align 1
  %22 = zext i8 %21 to i32
  %23 = getelementptr inbounds i8, ptr %2, i64 12
  %24 = load i8, ptr %23, align 4
  %25 = zext i8 %24 to i32
  %26 = getelementptr inbounds i8, ptr %2, i64 13
  %27 = load i8, ptr %26, align 1
  %28 = zext i8 %27 to i32
  %29 = getelementptr inbounds i8, ptr %2, i64 14
  %30 = load i8, ptr %29, align 2
  %31 = zext i8 %30 to i32
  %32 = getelementptr inbounds i8, ptr %2, i64 15
  %33 = load i8, ptr %32, align 1
  %34 = zext i8 %33 to i32
  %35 = tail call i32 (ptr, i64, ptr, ...) @ap_php_snprintf(ptr noundef %0, i64 noundef %1, ptr noundef nonnull @.str.32, i32 noundef %4, i32 noundef %7, i32 noundef %10, i32 noundef %13, i32 noundef %16, i32 noundef %19, i32 noundef %22, i32 noundef %25, i32 noundef %28, i32 noundef %31, i32 noundef %34) #17
  ret i32 %35
}